; Function Attrs: nounwind uwtable
define hidden i32 @opj_decode(ptr noundef %0, ptr noundef %1, ptr noundef %2) local_unnamed_addr #2 {
  %4 = icmp ne ptr %0, null
  %5 = icmp ne ptr %1, null
  %or.cond = and i1 %4, %5
  br i1 %or.cond, label %6, label %16

6:                                                ; preds = %3
  %7 = getelementptr inbounds nuw i8, ptr %0, i64 152
  %8 = load i32, ptr %7, align 8, !tbaa !15
  %.not = icmp eq i32 %8, 0
  br i1 %.not, label %16, label %9

9:                                                ; preds = %6
  %10 = getelementptr inbounds nuw i8, ptr %0, i64 8
  %11 = load ptr, ptr %10, align 8, !tbaa !19
  %12 = getelementptr inbounds nuw i8, ptr %0, i64 96
  %13 = load ptr, ptr %12, align 8, !tbaa !21
  %14 = getelementptr inbounds nuw i8, ptr %0, i64 104
  %15 = tail call i32 %11(ptr noundef %13, ptr noundef nonnull %1, ptr noundef %2, ptr noundef nonnull %14) #8
  br label %16

16:                                               ; preds = %3, %9, %6
  %.1 = phi i32 [ %15, %9 ], [ 0, %6 ], [ 0, %3 ]
  ret i32 %.1
}